(dp1
S'OriginalConfig'
p2
ccopy_reg
_reconstructor
p3
(cWMCore.Configuration
Configuration
p4
c__builtin__
object
p5
NtRp6
(dp7
S'Site'
p8
g3
(cWMCore.Configuration
ConfigSection
p9
g5
NtRp10
(dp11
S'_internal_skipChecks'
p12
I00
sS'_internal_documentation'
p13
S''
sS'_internal_settings'
p14
c__builtin__
set
p15
((lp16
S'storageSite'
p17
atRp18
sS'_internal_name'
p19
g8
sS'_internal_docstrings'
p20
(dp21
sS'_internal_children'
p22
g15
((ltRp23
sg17
S'T2_US_Nebraska'
p24
sS'_internal_parent_ref'
p25
NsbsS'_internal_sections'
p26
(lp27
S'General'
p28
aS'JobType'
p29
aS'Data'
p30
ag8
asg28
g3
(g9
g5
NtRp31
(dp32
S'workArea'
p33
S'crab_projects'
p34
sg12
I00
sg13
S''
sg14
g15
((lp35
g33
aS'transferOutputs'
p36
aS'transferLogs'
p37
aS'requestName'
p38
atRp39
sg19
g28
sg20
(dp40
sg36
I01
sg22
g15
((ltRp41
sg38
S'Bparking1_Run2018A'
p42
sg25
Nsg37
I01
sbsS'_internal_webapps'
p43
(lp44
sS'_internal_components'
p45
(lp46
sg30
g3
(g9
g5
NtRp47
(dp48
S'inputDataset'
p49
S'/ParkingBPH1/Run2018A-14May2018-v1/MINIAOD'
p50
sS'outputDatasetTag'
p51
S'ParkingBPH1_Run2018A_MINIAOD'
p52
sg12
I00
sS'splitting'
p53
S'LumiBased'
p54
sS'unitsPerJob'
p55
I50
sg13
S''
sg14
g15
((lp56
g49
ag51
aS'publication'
p57
ag55
ag53
aS'inputDBS'
p58
aS'outLFNDirBase'
p59
aS'lumiMask'
p60
aS'runRange'
p61
atRp62
sg19
g30
sg58
S'global'
p63
sg20
(dp64
sg22
g15
((ltRp65
sg59
S'/store/user/ragomesd'
p66
sg25
Nsg60
S'https://cms-service-dqm.web.cern.ch/cms-service-dqm/CAF/certification/Collisions18/13TeV/PromptReco/Cert_314472-325175_13TeV_PromptReco_Collisions18_JSON.txt'
p67
sg61
S'314472-325175'
p68
sg57
I00
sbsg29
g3
(g9
g5
NtRp69
(dp70
g12
I00
sg13
S''
sg14
g15
((lp71
S'psetName'
p72
aS'pluginName'
p73
atRp74
sg19
g29
sg20
(dp75
sg73
S'Analysis'
p76
sg22
g15
((ltRp77
sg72
S'dstard0_cfg1.py'
p78
sg25
NsbsbsS'voGroup'
p79
S''
sS'Server'
p80
S'cmsweb.cern.ch'
p81
sS'instance'
p82
S'prod'
p83
sS'RequestName'
p84
V191107_140835:ragomesd_crab_Bparking1_Run2018A
p85
sS'voRole'
p86
S'NULL'
p87
sS'Port'
p88
S''
s.